target datalayout = "e-m:e-p270:32:32-p271:32:32-p272:64:64-i64:64-i128:128-f80:128-n8:16:32:64-S128"
target triple = "x86_64-pc-linux-gnu"

%struct.media_content_info_t = type { i32, ptr, ptr, ptr }
%struct._sdp_setup_info = type { i32, i32, i8, i8, %union.anon }
%union.anon = type { ptr }

@hf_megaco_Context = internal global i32 0, align 4
@hf_megaco_Local_descriptor = internal global i32 0, align 4
@hf_megaco_Remote_descriptor = internal global i32 0, align 4
@ett_megaco_Remotedescriptor = internal global i32 0, align 4
@ett_megaco_Localdescriptor = internal global i32 0, align 4
@sdp_handle = internal global ptr null, align 8
@sip_hide_generated_call_ids = internal global ptr null, align 8
@__const.dissect_megaco_LocalRemotedescriptor.content_info = private unnamed_addr constant { i32, [4 x i8], ptr, ptr, ptr } { i32 4, [4 x i8] zeroinitializer, ptr null, ptr null, ptr null }, align 8

; Function Attrs: null_pointer_is_valid sspstrong uwtable
define internal void @dissect_megaco_LocalRemotedescriptor(ptr noundef %0, ptr noundef %1, ptr noundef %2, i32 noundef %3, i32 noundef %4, i32 noundef %5, i1 noundef zeroext %6) #0 {
  %8 = alloca ptr, align 8
  %9 = alloca ptr, align 8
  %10 = alloca ptr, align 8
  %11 = alloca i32, align 4
  %12 = alloca i32, align 4
  %13 = alloca i32, align 4
  %14 = alloca i8, align 1
  %15 = alloca i32, align 4
  %16 = alloca ptr, align 8
  %17 = alloca %struct.media_content_info_t, align 8
  %18 = alloca %struct._sdp_setup_info, align 8
  %19 = alloca %struct._sdp_setup_info, align 8
  %20 = alloca ptr, align 8
  %21 = alloca ptr, align 8
  store ptr %0, ptr %8, align 8
  store ptr %1, ptr %9, align 8
  store ptr %2, ptr %10, align 8
  store i32 %3, ptr %11, align 4
  store i32 %4, ptr %12, align 4
  store i32 %5, ptr %13, align 4
  %22 = zext i1 %6 to i8
  store i8 %22, ptr %14, align 1
  call void @llvm.lifetime.start.p0(i64 4, ptr %15) #12
  call void @llvm.lifetime.start.p0(i64 8, ptr %16) #12
  call void @llvm.lifetime.start.p0(i64 32, ptr %17) #12
  call void @llvm.memcpy.p0.p0.i64(ptr align 8 %17, ptr align 8 @__const.dissect_megaco_LocalRemotedescriptor.content_info, i64 32, i1 false)
  call void @llvm.lifetime.start.p0(i64 24, ptr %18) #12
  %23 = load i32, ptr %13, align 4
  %24 = icmp ne i32 %23, 0
  br i1 %24, label %25, label %49

25:                                               ; preds = %7
  %26 = load i32, ptr %13, align 4
  %27 = icmp ult i32 %26, -2
  br i1 %27, label %28, label %49

28:                                               ; preds = %25
  %29 = getelementptr inbounds nuw %struct._sdp_setup_info, ptr %19, i32 0, i32 0
  %30 = load i32, ptr @hf_megaco_Context, align 4
  store i32 %30, ptr %29, align 8
  %31 = getelementptr inbounds nuw %struct._sdp_setup_info, ptr %19, i32 0, i32 1
  store i32 1, ptr %31, align 4
  %32 = getelementptr inbounds nuw %struct._sdp_setup_info, ptr %19, i32 0, i32 2
  store i8 0, ptr %32, align 8
  %33 = getelementptr inbounds nuw %struct._sdp_setup_info, ptr %19, i32 0, i32 3
  store i8 0, ptr %33, align 1
  %34 = getelementptr i8, ptr %19, i64 10
  call void @llvm.memset.p0.i64(ptr align 2 %34, i8 0, i64 6, i1 false)
  %35 = getelementptr inbounds nuw %struct._sdp_setup_info, ptr %19, i32 0, i32 4
  %36 = load i32, ptr %13, align 4
  store i32 %36, ptr %35, align 8
  %37 = getelementptr i8, ptr %35, i64 4
  call void @llvm.memset.p0.i64(ptr align 4 %37, i8 0, i64 4, i1 false)
  call void @llvm.memcpy.p0.p0.i64(ptr align 8 %18, ptr align 8 %19, i64 24, i1 false)
  %38 = load ptr, ptr @sip_hide_generated_call_ids, align 8
  %39 = icmp ne ptr %38, null
  br i1 %39, label %42, label %40

40:                                               ; preds = %28
  %41 = getelementptr inbounds nuw %struct._sdp_setup_info, ptr %18, i32 0, i32 2
  store i8 0, ptr %41, align 8
  br label %47

42:                                               ; preds = %28
  %43 = load ptr, ptr @sip_hide_generated_call_ids, align 8
  %44 = call zeroext i1 @prefs_get_bool_value(ptr noundef %43, i32 noundef 2)
  %45 = getelementptr inbounds nuw %struct._sdp_setup_info, ptr %18, i32 0, i32 2
  %46 = zext i1 %44 to i8
  store i8 %46, ptr %45, align 8
  br label %47

47:                                               ; preds = %42, %40
  %48 = getelementptr inbounds nuw %struct.media_content_info_t, ptr %17, i32 0, i32 3
  store ptr %18, ptr %48, align 8
  br label %49

49:                                               ; preds = %47, %25, %7
  call void @llvm.lifetime.start.p0(i64 8, ptr %20) #12
  call void @llvm.lifetime.start.p0(i64 8, ptr %21) #12
  %50 = load i32, ptr %11, align 4
  %51 = load i32, ptr %12, align 4
  %52 = sub i32 %50, %51
  store i32 %52, ptr %15, align 4
  %53 = load i8, ptr %14, align 1, !range !6, !noundef !7
  %54 = trunc i8 %53 to i1
  br i1 %54, label %55, label %65

55:                                               ; preds = %49
  %56 = load ptr, ptr %9, align 8
  %57 = load i32, ptr @hf_megaco_Local_descriptor, align 4
  %58 = load ptr, ptr %8, align 8
  %59 = load i32, ptr %12, align 4
  %60 = load i32, ptr %15, align 4
  %61 = call ptr @proto_tree_add_item(ptr noundef %56, i32 noundef %57, ptr noundef %58, i32 noundef %59, i32 noundef %60, i32 noundef 0)
  store ptr %61, ptr %21, align 8
  %62 = load ptr, ptr %21, align 8
  %63 = load i32, ptr @ett_megaco_Localdescriptor, align 4
  %64 = call ptr @proto_item_add_subtree(ptr noundef %62, i32 noundef %63)
  store ptr %64, ptr %20, align 8
  br label %75

65:                                               ; preds = %49
  %66 = load ptr, ptr %9, align 8
  %67 = load i32, ptr @hf_megaco_Remote_descriptor, align 4
  %68 = load ptr, ptr %8, align 8
  %69 = load i32, ptr %12, align 4
  %70 = load i32, ptr %15, align 4
  %71 = call ptr @proto_tree_add_item(ptr noundef %66, i32 noundef %67, ptr noundef %68, i32 noundef %69, i32 noundef %70, i32 noundef 0)
  store ptr %71, ptr %21, align 8
  %72 = load ptr, ptr %21, align 8
  %73 = load i32, ptr @ett_megaco_Remotedescriptor, align 4
  %74 = call ptr @proto_item_add_subtree(ptr noundef %72, i32 noundef %73)
  store ptr %74, ptr %20, align 8
  br label %75

75:                                               ; preds = %65, %55
  %76 = load i32, ptr %15, align 4
  %77 = icmp sgt i32 %76, 3
  br i1 %77, label %78, label %88

78:                                               ; preds = %75
  %79 = load ptr, ptr %8, align 8
  %80 = load i32, ptr %12, align 4
  %81 = load i32, ptr %15, align 4
  %82 = call ptr @tvb_new_subset_length(ptr noundef %79, i32 noundef %80, i32 noundef %81)
  store ptr %82, ptr %16, align 8
  %83 = load ptr, ptr @sdp_handle, align 8
  %84 = load ptr, ptr %16, align 8
  %85 = load ptr, ptr %10, align 8
  %86 = load ptr, ptr %20, align 8
  %87 = call i32 @call_dissector_with_data(ptr noundef %83, ptr noundef %84, ptr noundef %85, ptr noundef %86, ptr noundef %17)
  br label %88

88:                                               ; preds = %78, %75
  call void @llvm.lifetime.end.p0(i64 8, ptr %21) #12
  call void @llvm.lifetime.end.p0(i64 8, ptr %20) #12
  call void @llvm.lifetime.end.p0(i64 24, ptr %18) #12
  call void @llvm.lifetime.end.p0(i64 32, ptr %17) #12
  call void @llvm.lifetime.end.p0(i64 8, ptr %16) #12
  call void @llvm.lifetime.end.p0(i64 4, ptr %15) #12
  ret void
}