; Function Attrs: null_pointer_is_valid sspstrong uwtable
define internal fastcc void @dissect_megaco_LocalRemotedescriptor(ptr noundef %0, ptr noundef %1, ptr noundef %2, i32 noundef %3, i32 noundef %4, i32 noundef %5, i1 noundef zeroext %6) unnamed_addr #0 {
  %8 = alloca %struct.media_content_info_t, align 8
  %9 = alloca %struct._sdp_setup_info, align 8
  call void @llvm.lifetime.start.p0(i64 32, ptr nonnull %8) #11
  call void @llvm.memcpy.p0.p0.i64(ptr noundef nonnull align 8 dereferenceable(32) %8, ptr noundef nonnull align 8 dereferenceable(32) @__const.dissect_megaco_LocalRemotedescriptor.content_info, i64 32, i1 false)
  call void @llvm.lifetime.start.p0(i64 24, ptr nonnull %9) #11
  %10 = add i32 %5, -1
  %or.cond = icmp ult i32 %10, -3
  br i1 %or.cond, label %11, label %19

11:                                               ; preds = %7
  %12 = load i32, ptr @hf_megaco_Context, align 4
  %.sroa.5.0..sroa_idx = getelementptr inbounds nuw i8, ptr %9, i64 10
  call void @llvm.memset.p0.i64(ptr noundef nonnull align 2 dereferenceable(6) %.sroa.5.0..sroa_idx, i8 0, i64 6, i1 false)
  store i32 %12, ptr %9, align 8
  %.sroa.2.0..sroa_idx = getelementptr inbounds nuw i8, ptr %9, i64 4
  store i32 1, ptr %.sroa.2.0..sroa_idx, align 4
  %.sroa.3.0..sroa_idx = getelementptr inbounds nuw i8, ptr %9, i64 8
  %.sroa.4.0..sroa_idx = getelementptr inbounds nuw i8, ptr %9, i64 9
  store i8 0, ptr %.sroa.4.0..sroa_idx, align 1
  %.sroa.6.0..sroa_idx = getelementptr inbounds nuw i8, ptr %9, i64 16
  store i32 %5, ptr %.sroa.6.0..sroa_idx, align 8
  %.sroa.7.0..sroa_idx = getelementptr inbounds nuw i8, ptr %9, i64 20
  store i32 0, ptr %.sroa.7.0..sroa_idx, align 4
  %13 = load ptr, ptr @sip_hide_generated_call_ids, align 8
  %.not = icmp eq ptr %13, null
  br i1 %.not, label %17, label %14

14:                                               ; preds = %11
  %15 = tail call zeroext i1 @prefs_get_bool_value(ptr noundef nonnull %13, i32 noundef 2)
  %16 = zext i1 %15 to i8
  br label %17

17:                                               ; preds = %11, %14
  %storemerge = phi i8 [ %16, %14 ], [ 0, %11 ]
  store i8 %storemerge, ptr %.sroa.3.0..sroa_idx, align 8
  %18 = getelementptr inbounds nuw i8, ptr %8, i64 24
  store ptr %9, ptr %18, align 8
  br label %19

19:                                               ; preds = %17, %7
  %20 = sub i32 %3, %4
  %hf_megaco_Local_descriptor.val = load i32, ptr @hf_megaco_Local_descriptor, align 4
  %hf_megaco_Remote_descriptor.val = load i32, ptr @hf_megaco_Remote_descriptor, align 4
  %21 = select i1 %6, i32 %hf_megaco_Local_descriptor.val, i32 %hf_megaco_Remote_descriptor.val
  %22 = call ptr @proto_tree_add_item(ptr noundef %1, i32 noundef %21, ptr noundef %0, i32 noundef %4, i32 noundef %20, i32 noundef 0)
  %ett_megaco_Localdescriptor.val = load i32, ptr @ett_megaco_Localdescriptor, align 4
  %ett_megaco_Remotedescriptor.val = load i32, ptr @ett_megaco_Remotedescriptor, align 4
  %23 = select i1 %6, i32 %ett_megaco_Localdescriptor.val, i32 %ett_megaco_Remotedescriptor.val
  %24 = call ptr @proto_item_add_subtree(ptr noundef %22, i32 noundef %23)
  %25 = icmp sgt i32 %20, 3
  br i1 %25, label %26, label %30

26:                                               ; preds = %19
  %27 = call ptr @tvb_new_subset_length(ptr noundef %0, i32 noundef %4, i32 noundef %20)
  %28 = load ptr, ptr @sdp_handle, align 8
  %29 = call i32 @call_dissector_with_data(ptr noundef %28, ptr noundef %27, ptr noundef %2, ptr noundef %24, ptr noundef nonnull %8)
  br label %30

30:                                               ; preds = %26, %19
  call void @llvm.lifetime.end.p0(i64 24, ptr nonnull %9) #11
  call void @llvm.lifetime.end.p0(i64 32, ptr nonnull %8) #11
  ret void
}